target datalayout = "e-m:e-p270:32:32-p271:32:32-p272:64:64-i64:64-i128:128-f80:128-n8:16:32:64-S128"
target triple = "x86_64-pc-linux-gnu"

%struct.luaL_Reg = type { ptr, ptr }

@.str.17 = private unnamed_addr constant [9 x i8] c"cmsgpack\00", align 1
@.str.25 = private unnamed_addr constant [14 x i8] c"cmsgpack_safe\00", align 1

; Function Attrs: nounwind uwtable
define dso_local i32 @luaopen_cmsgpack(ptr noundef %0) #0 {
  %2 = alloca ptr, align 8
  store ptr %0, ptr %2, align 8, !tbaa !17
  %3 = load ptr, ptr %2, align 8, !tbaa !17
  %4 = call i32 @luaopen_create(ptr noundef %3)
  %5 = load ptr, ptr %2, align 8, !tbaa !17
  call void @lua_pushvalue(ptr noundef %5, i32 noundef -1)
  %6 = load ptr, ptr %2, align 8, !tbaa !17
  call void @lua_setfield(ptr noundef %6, i32 noundef -10002, ptr noundef @.str.17)
  ret i32 1
}

; Function Attrs: nounwind uwtable
define dso_local i32 @luaopen_cmsgpack_safe(ptr noundef %0) #0 {
  %2 = alloca ptr, align 8
  %3 = alloca i32, align 4
  store ptr %0, ptr %2, align 8, !tbaa !17
  call void @llvm.lifetime.start.p0(i64 4, ptr %3) #6
  %4 = load ptr, ptr %2, align 8, !tbaa !17
  %5 = call i32 @luaopen_cmsgpack(ptr noundef %4)
  store i32 0, ptr %3, align 4, !tbaa !12
  br label %6

6:                                                ; preds = %24, %1
  %7 = load i32, ptr %3, align 4, !tbaa !12
  %8 = sext i32 %7 to i64
  %9 = icmp ult i64 %8, 4
  br i1 %9, label %10, label %27

10:                                               ; preds = %6
  %11 = load ptr, ptr %2, align 8, !tbaa !17
  %12 = load i32, ptr %3, align 4, !tbaa !12
  %13 = sext i32 %12 to i64
  %14 = getelementptr inbounds [5 x %struct.luaL_Reg], ptr @cmds, i64 0, i64 %13
  %15 = getelementptr inbounds nuw %struct.luaL_Reg, ptr %14, i32 0, i32 0
  %16 = load ptr, ptr %15, align 16, !tbaa !45
  call void @lua_getfield(ptr noundef %11, i32 noundef -1, ptr noundef %16)
  %17 = load ptr, ptr %2, align 8, !tbaa !17
  call void @lua_pushcclosure(ptr noundef %17, ptr noundef @mp_safe, i32 noundef 1)
  %18 = load ptr, ptr %2, align 8, !tbaa !17
  %19 = load i32, ptr %3, align 4, !tbaa !12
  %20 = sext i32 %19 to i64
  %21 = getelementptr inbounds [5 x %struct.luaL_Reg], ptr @cmds, i64 0, i64 %20
  %22 = getelementptr inbounds nuw %struct.luaL_Reg, ptr %21, i32 0, i32 0
  %23 = load ptr, ptr %22, align 16, !tbaa !45
  call void @lua_setfield(ptr noundef %18, i32 noundef -2, ptr noundef %23)
  br label %24

24:                                               ; preds = %10
  %25 = load i32, ptr %3, align 4, !tbaa !12
  %26 = add nsw i32 %25, 1
  store i32 %26, ptr %3, align 4, !tbaa !12
  br label %6, !llvm.loop !47

27:                                               ; preds = %6
  %28 = load ptr, ptr %2, align 8, !tbaa !17
  call void @lua_pushvalue(ptr noundef %28, i32 noundef -1)
  %29 = load ptr, ptr %2, align 8, !tbaa !17
  call void @lua_setfield(ptr noundef %29, i32 noundef -10002, ptr noundef @.str.25)
  call void @llvm.lifetime.end.p0(i64 4, ptr %3) #6
  ret i32 1
}