; Function Attrs: nounwind uwtable
define dso_local noundef i32 @luaopen_cmsgpack_safe(ptr noundef %0) local_unnamed_addr #2 {
  %2 = tail call i32 @luaopen_create(ptr noundef %0)
  tail call void @lua_pushvalue(ptr noundef %0, i32 noundef -1) #10
  tail call void @lua_setfield(ptr noundef %0, i32 noundef -10002, ptr noundef nonnull @.str.17) #10
  br label %3

3:                                                ; preds = %1, %3
  %indvars.iv = phi i64 [ 0, %1 ], [ %indvars.iv.next, %3 ]
  %4 = getelementptr inbounds nuw [5 x %struct.luaL_Reg], ptr @cmds, i64 0, i64 %indvars.iv
  %5 = load ptr, ptr %4, align 16, !tbaa !37
  tail call void @lua_getfield(ptr noundef %0, i32 noundef -1, ptr noundef %5) #10
  tail call void @lua_pushcclosure(ptr noundef %0, ptr noundef nonnull @mp_safe, i32 noundef 1) #10
  tail call void @lua_setfield(ptr noundef %0, i32 noundef -2, ptr noundef %5) #10
  %indvars.iv.next = add nuw nsw i64 %indvars.iv, 1
  %exitcond.not = icmp eq i64 %indvars.iv.next, 4
  br i1 %exitcond.not, label %6, label %3, !llvm.loop !39

6:                                                ; preds = %3
  tail call void @lua_pushvalue(ptr noundef %0, i32 noundef -1) #10
  tail call void @lua_setfield(ptr noundef %0, i32 noundef -10002, ptr noundef nonnull @.str.25) #10
  ret i32 1
}